target datalayout = "e-m:e-p270:32:32-p271:32:32-p272:64:64-i64:64-i128:128-f80:128-n8:16:32:64-S128"
target triple = "x86_64-pc-linux-gnu"

; Function Attrs: inlinehint nounwind uwtable
define internal i32 @cpu_to_fdt32(i32 noundef %0) #3 {
  %2 = alloca i32, align 4
  store i32 %0, ptr %2, align 4
  %3 = getelementptr inbounds i8, ptr %2, i64 0
  %4 = load i8, ptr %3, align 4
  %5 = zext i8 %4 to i64
  %6 = shl i64 %5, 24
  %7 = getelementptr inbounds i8, ptr %2, i64 1
  %8 = load i8, ptr %7, align 1
  %9 = zext i8 %8 to i64
  %10 = shl i64 %9, 16
  %11 = or i64 %6, %10
  %12 = getelementptr inbounds i8, ptr %2, i64 2
  %13 = load i8, ptr %12, align 2
  %14 = zext i8 %13 to i64
  %15 = shl i64 %14, 8
  %16 = or i64 %11, %15
  %17 = getelementptr inbounds i8, ptr %2, i64 3
  %18 = load i8, ptr %17, align 1
  %19 = zext i8 %18 to i64
  %20 = or i64 %16, %19
  %21 = trunc i64 %20 to i32
  ret i32 %21
}

; Function Attrs: inlinehint nounwind uwtable
define internal i32 @fdt32_to_cpu(i32 noundef %0) #3 {
  %2 = alloca i32, align 4
  store i32 %0, ptr %2, align 4
  %3 = getelementptr inbounds i8, ptr %2, i64 0
  %4 = load i8, ptr %3, align 4
  %5 = zext i8 %4 to i64
  %6 = shl i64 %5, 24
  %7 = getelementptr inbounds i8, ptr %2, i64 1
  %8 = load i8, ptr %7, align 1
  %9 = zext i8 %8 to i64
  %10 = shl i64 %9, 16
  %11 = or i64 %6, %10
  %12 = getelementptr inbounds i8, ptr %2, i64 2
  %13 = load i8, ptr %12, align 2
  %14 = zext i8 %13 to i64
  %15 = shl i64 %14, 8
  %16 = or i64 %11, %15
  %17 = getelementptr inbounds i8, ptr %2, i64 3
  %18 = load i8, ptr %17, align 1
  %19 = zext i8 %18 to i64
  %20 = or i64 %16, %19
  %21 = trunc i64 %20 to i32
  ret i32 %21
}

; Function Attrs: nounwind uwtable
define internal i32 @overlay_update_local_node_references(ptr noundef %0, i32 noundef %1, i32 noundef %2, i32 noundef %3) #0 {
  %5 = alloca i32, align 4
  %6 = alloca ptr, align 8
  %7 = alloca i32, align 4
  %8 = alloca i32, align 4
  %9 = alloca i32, align 4
  %10 = alloca i32, align 4
  %11 = alloca i32, align 4
  %12 = alloca i32, align 4
  %13 = alloca ptr, align 8
  %14 = alloca ptr, align 8
  %15 = alloca ptr, align 8
  %16 = alloca i32, align 4
  %17 = alloca i32, align 4
  %18 = alloca i32, align 4
  %19 = alloca i32, align 4
  %20 = alloca i32, align 4
  %21 = alloca i32, align 4
  %22 = alloca ptr, align 8
  %23 = alloca i32, align 4
  store ptr %0, ptr %6, align 8
  store i32 %1, ptr %7, align 4
  store i32 %2, ptr %8, align 4
  store i32 %3, ptr %9, align 4
  call void @llvm.lifetime.start.p0(i64 4, ptr %10) #7
  store i32 0, ptr %10, align 4, !annotation !4
  call void @llvm.lifetime.start.p0(i64 4, ptr %11) #7
  store i32 0, ptr %11, align 4, !annotation !4
  call void @llvm.lifetime.start.p0(i64 4, ptr %12) #7
  store i32 0, ptr %12, align 4, !annotation !4
  %24 = load ptr, ptr %6, align 8
  %25 = load i32, ptr %8, align 4
  %26 = call i32 @fdt_first_property_offset(ptr noundef %24, i32 noundef %25)
  store i32 %26, ptr %10, align 4
  br label %27

27:                                               ; preds = %109, %4
  %28 = load i32, ptr %10, align 4
  %29 = icmp sge i32 %28, 0
  br i1 %29, label %30, label %113

30:                                               ; preds = %27
  call void @llvm.lifetime.start.p0(i64 8, ptr %13) #7
  store ptr null, ptr %13, align 8, !annotation !4
  call void @llvm.lifetime.start.p0(i64 8, ptr %14) #7
  store ptr null, ptr %14, align 8, !annotation !4
  call void @llvm.lifetime.start.p0(i64 8, ptr %15) #7
  store ptr null, ptr %15, align 8, !annotation !4
  call void @llvm.lifetime.start.p0(i64 4, ptr %16) #7
  store i32 0, ptr %16, align 4, !annotation !4
  call void @llvm.lifetime.start.p0(i64 4, ptr %17) #7
  store i32 0, ptr %17, align 4, !annotation !4
  call void @llvm.lifetime.start.p0(i64 4, ptr %18) #7
  store i32 0, ptr %18, align 4, !annotation !4
  %31 = load ptr, ptr %6, align 8
  %32 = load i32, ptr %10, align 4
  %33 = call ptr @fdt_getprop_by_offset(ptr noundef %31, i32 noundef %32, ptr noundef %15, ptr noundef %16)
  store ptr %33, ptr %13, align 8
  %34 = load ptr, ptr %13, align 8
  %35 = icmp ne ptr %34, null
  br i1 %35, label %38, label %36

36:                                               ; preds = %30
  %37 = load i32, ptr %16, align 4
  store i32 %37, ptr %5, align 4
  store i32 1, ptr %19, align 4
  br label %106

38:                                               ; preds = %30
  %39 = load i32, ptr %16, align 4
  %40 = sext i32 %39 to i64
  %41 = urem i64 %40, 4
  %42 = icmp ne i64 %41, 0
  br i1 %42, label %43, label %44

43:                                               ; preds = %38
  store i32 -16, ptr %5, align 4
  store i32 1, ptr %19, align 4
  br label %106

44:                                               ; preds = %38
  %45 = load i32, ptr %16, align 4
  %46 = sext i32 %45 to i64
  %47 = udiv i64 %46, 4
  %48 = trunc i64 %47 to i32
  store i32 %48, ptr %16, align 4
  %49 = load ptr, ptr %6, align 8
  %50 = load i32, ptr %7, align 4
  %51 = load ptr, ptr %15, align 8
  %52 = call ptr @fdt_getprop(ptr noundef %49, i32 noundef %50, ptr noundef %51, ptr noundef %17)
  store ptr %52, ptr %14, align 8
  %53 = load ptr, ptr %14, align 8
  %54 = icmp ne ptr %53, null
  br i1 %54, label %61, label %55

55:                                               ; preds = %44
  %56 = load i32, ptr %17, align 4
  %57 = icmp eq i32 %56, -1
  br i1 %57, label %58, label %59

58:                                               ; preds = %55
  store i32 -16, ptr %5, align 4
  store i32 1, ptr %19, align 4
  br label %106

59:                                               ; preds = %55
  %60 = load i32, ptr %17, align 4
  store i32 %60, ptr %5, align 4
  store i32 1, ptr %19, align 4
  br label %106

61:                                               ; preds = %44
  store i32 0, ptr %18, align 4
  br label %62

62:                                               ; preds = %102, %61
  %63 = load i32, ptr %18, align 4
  %64 = load i32, ptr %16, align 4
  %65 = icmp slt i32 %63, %64
  br i1 %65, label %66, label %105

66:                                               ; preds = %62
  call void @llvm.lifetime.start.p0(i64 4, ptr %20) #7
  store i32 0, ptr %20, align 4, !annotation !4
  call void @llvm.lifetime.start.p0(i64 4, ptr %21) #7
  store i32 0, ptr %21, align 4, !annotation !4
  %67 = load ptr, ptr %13, align 8
  %68 = load i32, ptr %18, align 4
  %69 = sext i32 %68 to i64
  %70 = getelementptr inbounds i32, ptr %67, i64 %69
  %71 = load i32, ptr %70, align 4
  %72 = call i32 @fdt32_to_cpu(i32 noundef %71)
  store i32 %72, ptr %21, align 4
  %73 = load ptr, ptr %14, align 8
  %74 = load i32, ptr %21, align 4
  %75 = zext i32 %74 to i64
  %76 = getelementptr inbounds nuw i8, ptr %73, i64 %75
  call void @llvm.memcpy.p0.p0.i64(ptr align 4 %20, ptr align 1 %76, i64 4, i1 false)
  %77 = load i32, ptr %20, align 4
  %78 = call i32 @fdt32_to_cpu(i32 noundef %77)
  %79 = load i32, ptr %9, align 4
  %80 = add i32 %78, %79
  %81 = call i32 @cpu_to_fdt32(i32 noundef %80)
  store i32 %81, ptr %20, align 4
  %82 = load ptr, ptr %6, align 8
  %83 = load i32, ptr %7, align 4
  %84 = load ptr, ptr %15, align 8
  %85 = load ptr, ptr %15, align 8
  %86 = call i64 @strlen(ptr noundef %85) #8
  %87 = trunc i64 %86 to i32
  %88 = load i32, ptr %21, align 4
  %89 = call i32 @fdt_setprop_inplace_namelen_partial(ptr noundef %82, i32 noundef %83, ptr noundef %84, i32 noundef %87, i32 noundef %88, ptr noundef %20, i32 noundef 4)
  store i32 %89, ptr %12, align 4
  %90 = load i32, ptr %12, align 4
  %91 = icmp eq i32 %90, -3
  br i1 %91, label %92, label %93

92:                                               ; preds = %66
  store i32 -16, ptr %5, align 4
  store i32 1, ptr %19, align 4
  br label %99

93:                                               ; preds = %66
  %94 = load i32, ptr %12, align 4
  %95 = icmp ne i32 %94, 0
  br i1 %95, label %96, label %98

96:                                               ; preds = %93
  %97 = load i32, ptr %12, align 4
  store i32 %97, ptr %5, align 4
  store i32 1, ptr %19, align 4
  br label %99

98:                                               ; preds = %93
  store i32 0, ptr %19, align 4
  br label %99

99:                                               ; preds = %98, %96, %92
  call void @llvm.lifetime.end.p0(i64 4, ptr %21) #7
  call void @llvm.lifetime.end.p0(i64 4, ptr %20) #7
  %100 = load i32, ptr %19, align 4
  switch i32 %100, label %106 [
    i32 0, label %101
  ]

101:                                              ; preds = %99
  br label %102

102:                                              ; preds = %101
  %103 = load i32, ptr %18, align 4
  %104 = add i32 %103, 1
  store i32 %104, ptr %18, align 4
  br label %62, !llvm.loop !10

105:                                              ; preds = %62
  store i32 0, ptr %19, align 4
  br label %106

106:                                              ; preds = %105, %99, %59, %58, %43, %36
  call void @llvm.lifetime.end.p0(i64 4, ptr %18) #7
  call void @llvm.lifetime.end.p0(i64 4, ptr %17) #7
  call void @llvm.lifetime.end.p0(i64 4, ptr %16) #7
  call void @llvm.lifetime.end.p0(i64 8, ptr %15) #7
  call void @llvm.lifetime.end.p0(i64 8, ptr %14) #7
  call void @llvm.lifetime.end.p0(i64 8, ptr %13) #7
  %107 = load i32, ptr %19, align 4
  switch i32 %107, label %155 [
    i32 0, label %108
  ]

108:                                              ; preds = %106
  br label %109

109:                                              ; preds = %108
  %110 = load ptr, ptr %6, align 8
  %111 = load i32, ptr %10, align 4
  %112 = call i32 @fdt_next_property_offset(ptr noundef %110, i32 noundef %111)
  store i32 %112, ptr %10, align 4
  br label %27, !llvm.loop !11

113:                                              ; preds = %27
  %114 = load ptr, ptr %6, align 8
  %115 = load i32, ptr %8, align 4
  %116 = call i32 @fdt_first_subnode(ptr noundef %114, i32 noundef %115)
  store i32 %116, ptr %11, align 4
  br label %117

117:                                              ; preds = %150, %113
  %118 = load i32, ptr %11, align 4
  %119 = icmp sge i32 %118, 0
  br i1 %119, label %120, label %154

120:                                              ; preds = %117
  call void @llvm.lifetime.start.p0(i64 8, ptr %22) #7
  %121 = load ptr, ptr %6, align 8
  %122 = load i32, ptr %11, align 4
  %123 = call ptr @fdt_get_name(ptr noundef %121, i32 noundef %122, ptr noundef null)
  store ptr %123, ptr %22, align 8
  call void @llvm.lifetime.start.p0(i64 4, ptr %23) #7
  store i32 0, ptr %23, align 4, !annotation !4
  %124 = load ptr, ptr %6, align 8
  %125 = load i32, ptr %7, align 4
  %126 = load ptr, ptr %22, align 8
  %127 = call i32 @fdt_subnode_offset(ptr noundef %124, i32 noundef %125, ptr noundef %126)
  store i32 %127, ptr %23, align 4
  %128 = load i32, ptr %23, align 4
  %129 = icmp eq i32 %128, -1
  br i1 %129, label %130, label %131

130:                                              ; preds = %120
  store i32 -16, ptr %5, align 4
  store i32 1, ptr %19, align 4
  br label %147

131:                                              ; preds = %120
  %132 = load i32, ptr %23, align 4
  %133 = icmp slt i32 %132, 0
  br i1 %133, label %134, label %136

134:                                              ; preds = %131
  %135 = load i32, ptr %23, align 4
  store i32 %135, ptr %5, align 4
  store i32 1, ptr %19, align 4
  br label %147

136:                                              ; preds = %131
  %137 = load ptr, ptr %6, align 8
  %138 = load i32, ptr %23, align 4
  %139 = load i32, ptr %11, align 4
  %140 = load i32, ptr %9, align 4
  %141 = call i32 @overlay_update_local_node_references(ptr noundef %137, i32 noundef %138, i32 noundef %139, i32 noundef %140)
  store i32 %141, ptr %12, align 4
  %142 = load i32, ptr %12, align 4
  %143 = icmp ne i32 %142, 0
  br i1 %143, label %144, label %146

144:                                              ; preds = %136
  %145 = load i32, ptr %12, align 4
  store i32 %145, ptr %5, align 4
  store i32 1, ptr %19, align 4
  br label %147

146:                                              ; preds = %136
  store i32 0, ptr %19, align 4
  br label %147

147:                                              ; preds = %146, %144, %134, %130
  call void @llvm.lifetime.end.p0(i64 4, ptr %23) #7
  call void @llvm.lifetime.end.p0(i64 8, ptr %22) #7
  %148 = load i32, ptr %19, align 4
  switch i32 %148, label %155 [
    i32 0, label %149
  ]

149:                                              ; preds = %147
  br label %150

150:                                              ; preds = %149
  %151 = load ptr, ptr %6, align 8
  %152 = load i32, ptr %11, align 4
  %153 = call i32 @fdt_next_subnode(ptr noundef %151, i32 noundef %152)
  store i32 %153, ptr %11, align 4
  br label %117, !llvm.loop !12

154:                                              ; preds = %117
  store i32 0, ptr %5, align 4
  store i32 1, ptr %19, align 4
  br label %155

155:                                              ; preds = %154, %147, %106
  call void @llvm.lifetime.end.p0(i64 4, ptr %12) #7
  call void @llvm.lifetime.end.p0(i64 4, ptr %11) #7
  call void @llvm.lifetime.end.p0(i64 4, ptr %10) #7
  %156 = load i32, ptr %5, align 4
  ret i32 %156
}