; Function Attrs: nounwind uwtable
define internal fastcc i32 @overlay_update_local_node_references(ptr noundef %0, i32 noundef range(i32 0, -2147483648) %1, i32 noundef range(i32 0, -2147483648) %2, i32 noundef %3) unnamed_addr #0 {
  %5 = alloca ptr, align 8
  %6 = alloca i32, align 4
  %7 = alloca i32, align 4
  %8 = alloca i32, align 4
  %9 = tail call i32 @fdt_first_property_offset(ptr noundef %0, i32 noundef %2) #8
  %10 = icmp sgt i32 %9, -1
  br i1 %10, label %.lr.ph81, label %._crit_edge82

.lr.ph81:                                         ; preds = %4, %._crit_edge
  %.04879 = phi i32 [ %38, %._crit_edge ], [ %9, %4 ]
  call void @llvm.lifetime.start.p0(i64 8, ptr nonnull %5) #8
  store ptr null, ptr %5, align 8, !annotation !4
  call void @llvm.lifetime.start.p0(i64 4, ptr nonnull %6) #8
  store i32 0, ptr %6, align 4, !annotation !4
  call void @llvm.lifetime.start.p0(i64 4, ptr nonnull %7) #8
  store i32 0, ptr %7, align 4, !annotation !4
  %11 = call ptr @fdt_getprop_by_offset(ptr noundef %0, i32 noundef %.04879, ptr noundef nonnull %5, ptr noundef nonnull %6) #8
  %.not60 = icmp eq ptr %11, null
  %12 = load i32, ptr %6, align 4
  br i1 %.not60, label %.thread70, label %13

13:                                               ; preds = %.lr.ph81
  %14 = and i32 %12, 3
  %.not61 = icmp eq i32 %14, 0
  br i1 %.not61, label %15, label %.thread70

15:                                               ; preds = %13
  %16 = ashr exact i32 %12, 2
  store i32 %16, ptr %6, align 4
  %17 = load ptr, ptr %5, align 8
  %18 = call ptr @fdt_getprop(ptr noundef %0, i32 noundef %1, ptr noundef %17, ptr noundef nonnull %7) #8
  %.not62 = icmp eq ptr %18, null
  br i1 %.not62, label %21, label %.preheader

.preheader:                                       ; preds = %15
  %19 = load i32, ptr %6, align 4
  %20 = icmp sgt i32 %19, 0
  br i1 %20, label %.lr.ph, label %._crit_edge

21:                                               ; preds = %15
  %22 = load i32, ptr %7, align 4
  %23 = icmp eq i32 %22, -1
  %. = select i1 %23, i32 -16, i32 %22
  br label %.thread70

.lr.ph:                                           ; preds = %.preheader, %34
  %indvars.iv = phi i64 [ %indvars.iv.next, %34 ], [ 0, %.preheader ]
  call void @llvm.lifetime.start.p0(i64 4, ptr nonnull %8) #8
  store i32 0, ptr %8, align 4, !annotation !4
  %24 = getelementptr inbounds nuw i32, ptr %11, i64 %indvars.iv
  %25 = load i32, ptr %24, align 4
  %rev.i = call noundef i32 @llvm.bswap.i32(i32 %25)
  %26 = zext i32 %rev.i to i64
  %27 = getelementptr inbounds nuw i8, ptr %18, i64 %26
  %28 = load i32, ptr %27, align 1
  %rev.i65 = call noundef i32 @llvm.bswap.i32(i32 %28)
  %29 = add i32 %rev.i65, %3
  %rev.i66 = call noundef i32 @llvm.bswap.i32(i32 %29)
  store i32 %rev.i66, ptr %8, align 4
  %30 = load ptr, ptr %5, align 8
  %31 = call i64 @strlen(ptr noundef nonnull dereferenceable(1) %30) #9
  %32 = trunc i64 %31 to i32
  %33 = call i32 @fdt_setprop_inplace_namelen_partial(ptr noundef %0, i32 noundef %1, ptr noundef nonnull %30, i32 noundef %32, i32 noundef %rev.i, ptr noundef nonnull %8, i32 noundef 4) #8
  switch i32 %33, label %.thread [
    i32 -3, label %.thread.loopexit
    i32 0, label %34
  ]

.thread.loopexit:                                 ; preds = %.lr.ph
  br label %.thread

.thread:                                          ; preds = %.lr.ph, %.thread.loopexit
  %.3.ph = phi i32 [ -16, %.thread.loopexit ], [ %33, %.lr.ph ]
  call void @llvm.lifetime.end.p0(i64 4, ptr nonnull %8) #8
  br label %.thread70

34:                                               ; preds = %.lr.ph
  call void @llvm.lifetime.end.p0(i64 4, ptr nonnull %8) #8
  %indvars.iv.next = add nuw nsw i64 %indvars.iv, 1
  %35 = load i32, ptr %6, align 4
  %36 = sext i32 %35 to i64
  %37 = icmp slt i64 %indvars.iv.next, %36
  br i1 %37, label %.lr.ph, label %._crit_edge, !llvm.loop !11

.thread70:                                        ; preds = %13, %.lr.ph81, %21, %.thread
  %.1.ph = phi i32 [ %.3.ph, %.thread ], [ %., %21 ], [ %12, %.lr.ph81 ], [ -16, %13 ]
  call void @llvm.lifetime.end.p0(i64 4, ptr nonnull %7) #8
  call void @llvm.lifetime.end.p0(i64 4, ptr nonnull %6) #8
  call void @llvm.lifetime.end.p0(i64 8, ptr nonnull %5) #8
  br label %.thread74

._crit_edge:                                      ; preds = %34, %.preheader
  call void @llvm.lifetime.end.p0(i64 4, ptr nonnull %7) #8
  call void @llvm.lifetime.end.p0(i64 4, ptr nonnull %6) #8
  call void @llvm.lifetime.end.p0(i64 8, ptr nonnull %5) #8
  %38 = call i32 @fdt_next_property_offset(ptr noundef %0, i32 noundef %.04879) #8
  %39 = icmp sgt i32 %38, -1
  br i1 %39, label %.lr.ph81, label %._crit_edge82, !llvm.loop !12

._crit_edge82:                                    ; preds = %._crit_edge, %4
  %40 = call i32 @fdt_first_subnode(ptr noundef %0, i32 noundef %2) #8
  %41 = icmp sgt i32 %40, -1
  br i1 %41, label %.lr.ph85, label %.thread74

.lr.ph85:                                         ; preds = %._crit_edge82, %49
  %.05383 = phi i32 [ %50, %49 ], [ %40, %._crit_edge82 ]
  %42 = call ptr @fdt_get_name(ptr noundef %0, i32 noundef %.05383, ptr noundef null) #8
  %43 = call i32 @fdt_subnode_offset(ptr noundef %0, i32 noundef %1, ptr noundef %42) #8
  %44 = icmp eq i32 %43, -1
  br i1 %44, label %.thread74, label %45

45:                                               ; preds = %.lr.ph85
  %46 = icmp slt i32 %43, 0
  br i1 %46, label %.thread74, label %47

47:                                               ; preds = %45
  %48 = call fastcc i32 @overlay_update_local_node_references(ptr noundef %0, i32 noundef %43, i32 noundef %.05383, i32 noundef %3)
  %.not = icmp eq i32 %48, 0
  br i1 %.not, label %49, label %.thread74

49:                                               ; preds = %47
  %50 = call i32 @fdt_next_subnode(ptr noundef %0, i32 noundef %.05383) #8
  %51 = icmp sgt i32 %50, -1
  br i1 %51, label %.lr.ph85, label %.thread74, !llvm.loop !13

.thread74:                                        ; preds = %47, %49, %.lr.ph85, %45, %._crit_edge82, %.thread70
  %.4 = phi i32 [ %.1.ph, %.thread70 ], [ 0, %._crit_edge82 ], [ %48, %47 ], [ 0, %49 ], [ -16, %.lr.ph85 ], [ %43, %45 ]
  ret i32 %.4
}